target datalayout = "e-m:e-p270:32:32-p271:32:32-p272:64:64-i64:64-i128:128-f80:128-n8:16:32:64-S128"
target triple = "x86_64-pc-linux-gnu"

%"class.llvm::MCMachObjectTargetWriter" = type { %"class.llvm::MCObjectTargetWriter", i8, i32, i32, i32 }
%"class.llvm::MCObjectTargetWriter" = type { ptr }

$_ZN4llvm20MCObjectTargetWriterC2Ev = comdat any

$_ZNK4llvm24MCMachObjectTargetWriter9getFormatEv = comdat any

$_ZN4llvm24MCMachObjectTargetWriter5resetEv = comdat any

$_ZN4llvm20MCObjectTargetWriterD2Ev = comdat any

$_ZN4llvm20MCObjectTargetWriterD0Ev = comdat any

$_ZTVN4llvm20MCObjectTargetWriterE = comdat any

@_ZN4llvm24DisableABIBreakingChecksE = external global i32, align 4
@_ZN4llvm30VerifyDisableABIBreakingChecksE = weak hidden global ptr @_ZN4llvm24DisableABIBreakingChecksE, align 8
@_ZTVN4llvm24MCMachObjectTargetWriterE = unnamed_addr constant { [7 x ptr] } { [7 x ptr] [ptr null, ptr null, ptr @_ZN4llvm24MCMachObjectTargetWriterD1Ev, ptr @_ZN4llvm24MCMachObjectTargetWriterD0Ev, ptr @_ZNK4llvm24MCMachObjectTargetWriter9getFormatEv, ptr @_ZN4llvm24MCMachObjectTargetWriter5resetEv, ptr @__cxa_pure_virtual] }, align 8
@_ZTVN4llvm20MCObjectTargetWriterE = linkonce_odr unnamed_addr constant { [5 x ptr] } { [5 x ptr] [ptr null, ptr null, ptr @_ZN4llvm20MCObjectTargetWriterD2Ev, ptr @_ZN4llvm20MCObjectTargetWriterD0Ev, ptr @__cxa_pure_virtual] }, comdat, align 8

@_ZN4llvm24MCMachObjectTargetWriterD1Ev = unnamed_addr alias void (ptr), ptr @_ZN4llvm24MCMachObjectTargetWriterD2Ev

; Function Attrs: mustprogress nounwind uwtable
define dso_local void @_ZN4llvm24MCMachObjectTargetWriterC2Ebjj(ptr noundef nonnull align 8 dereferenceable(24) %0, i1 noundef zeroext %1, i32 noundef %2, i32 noundef %3) unnamed_addr #0 align 2 {
  %5 = alloca ptr, align 8
  %6 = alloca i8, align 1
  %7 = alloca i32, align 4
  %8 = alloca i32, align 4
  store ptr %0, ptr %5, align 8
  %9 = zext i1 %1 to i8
  store i8 %9, ptr %6, align 1
  store i32 %2, ptr %7, align 4
  store i32 %3, ptr %8, align 4
  %10 = load ptr, ptr %5, align 8
  call void @_ZN4llvm20MCObjectTargetWriterC2Ev(ptr noundef nonnull align 8 dereferenceable(8) %10) #2
  store ptr getelementptr inbounds inrange(-16, 40) ({ [7 x ptr] }, ptr @_ZTVN4llvm24MCMachObjectTargetWriterE, i32 0, i32 0, i32 2), ptr %10, align 8
  %11 = getelementptr inbounds nuw %"class.llvm::MCMachObjectTargetWriter", ptr %10, i32 0, i32 1
  %12 = load i8, ptr %6, align 1
  %13 = trunc i8 %12 to i1
  %14 = zext i1 %13 to i32
  %15 = trunc i32 %14 to i8
  %16 = load i8, ptr %11, align 8
  %17 = and i8 %15, 1
  %18 = and i8 %16, -2
  %19 = or i8 %18, %17
  store i8 %19, ptr %11, align 8
  %20 = getelementptr inbounds nuw %"class.llvm::MCMachObjectTargetWriter", ptr %10, i32 0, i32 2
  %21 = load i32, ptr %7, align 4
  store i32 %21, ptr %20, align 4
  %22 = getelementptr inbounds nuw %"class.llvm::MCMachObjectTargetWriter", ptr %10, i32 0, i32 3
  %23 = load i32, ptr %8, align 4
  store i32 %23, ptr %22, align 8
  %24 = getelementptr inbounds nuw %"class.llvm::MCMachObjectTargetWriter", ptr %10, i32 0, i32 4
  store i32 0, ptr %24, align 4
  ret void
}

; Function Attrs: mustprogress nounwind uwtable
define linkonce_odr hidden void @_ZN4llvm20MCObjectTargetWriterC2Ev(ptr noundef nonnull align 8 dereferenceable(8) %0) unnamed_addr #0 comdat align 2 {
  %2 = alloca ptr, align 8
  store ptr %0, ptr %2, align 8
  %3 = load ptr, ptr %2, align 8
  store ptr getelementptr inbounds inrange(-16, 24) ({ [5 x ptr] }, ptr @_ZTVN4llvm20MCObjectTargetWriterE, i32 0, i32 0, i32 2), ptr %3, align 8
  ret void
}

; Function Attrs: mustprogress nounwind uwtable
define dso_local void @_ZN4llvm24MCMachObjectTargetWriterD2Ev(ptr noundef nonnull align 8 dereferenceable(24) %0) unnamed_addr #0 align 2 {
  %2 = alloca ptr, align 8
  store ptr %0, ptr %2, align 8
  %3 = load ptr, ptr %2, align 8
  call void @_ZN4llvm20MCObjectTargetWriterD2Ev(ptr noundef nonnull align 8 dereferenceable(8) %3) #2
  ret void
}

; Function Attrs: mustprogress nounwind uwtable
define dso_local void @_ZN4llvm24MCMachObjectTargetWriterD0Ev(ptr noundef nonnull align 8 dereferenceable(24) %0) unnamed_addr #0 align 2 {
  %2 = alloca ptr, align 8
  store ptr %0, ptr %2, align 8
  call void @llvm.trap() #3
  unreachable
}

; Function Attrs: cold noreturn nounwind memory(inaccessiblemem: write)
declare void @llvm.trap() #1

; Function Attrs: mustprogress nounwind uwtable
define linkonce_odr hidden noundef i32 @_ZNK4llvm24MCMachObjectTargetWriter9getFormatEv(ptr noundef nonnull align 8 dereferenceable(24) %0) unnamed_addr #0 comdat align 2 {
  %2 = alloca ptr, align 8
  store ptr %0, ptr %2, align 8
  ret i32 5
}

; Function Attrs: mustprogress nounwind uwtable
define linkonce_odr hidden void @_ZN4llvm24MCMachObjectTargetWriter5resetEv(ptr noundef nonnull align 8 dereferenceable(24) %0) unnamed_addr #0 comdat align 2 {
  %2 = alloca ptr, align 8
  store ptr %0, ptr %2, align 8
  ret void
}

declare void @__cxa_pure_virtual() unnamed_addr

; Function Attrs: mustprogress nounwind uwtable
define linkonce_odr hidden void @_ZN4llvm20MCObjectTargetWriterD2Ev(ptr noundef nonnull align 8 dereferenceable(8) %0) unnamed_addr #0 comdat align 2 {
  %2 = alloca ptr, align 8
  store ptr %0, ptr %2, align 8
  ret void
}

; Function Attrs: mustprogress nounwind uwtable
define linkonce_odr hidden void @_ZN4llvm20MCObjectTargetWriterD0Ev(ptr noundef nonnull align 8 dereferenceable(8) %0) unnamed_addr #0 comdat align 2 {
  %2 = alloca ptr, align 8
  store ptr %0, ptr %2, align 8
  call void @llvm.trap() #3
  unreachable
}


!llvm.module.flags = !{!0, !1, !2, !3}

!0 = !{i32 1, !"wchar_size", i32 4}
!1 = !{i32 8, !"PIC Level", i32 2}
!2 = !{i32 7, !"uwtable", i32 2}
!3 = !{i32 7, !"frame-pointer", i32 2}
