; ModuleID = 'bench/llvm/original/MCMachObjectTargetWriter.cpp.ll'
source_filename = "bench/llvm/original/MCMachObjectTargetWriter.cpp.ll"
target datalayout = "e-m:e-p270:32:32-p271:32:32-p272:64:64-i64:64-i128:128-f80:128-n8:16:32:64-S128"
target triple = "x86_64-pc-linux-gnu"

$_ZNK4llvm24MCMachObjectTargetWriter9getFormatEv = comdat any

$_ZN4llvm24MCMachObjectTargetWriter5resetEv = comdat any

@_ZN4llvm24DisableABIBreakingChecksE = external global i32, align 4
@_ZN4llvm30VerifyDisableABIBreakingChecksE = weak hidden local_unnamed_addr global ptr @_ZN4llvm24DisableABIBreakingChecksE, align 8
@_ZTVN4llvm24MCMachObjectTargetWriterE = unnamed_addr constant { [7 x ptr] } { [7 x ptr] [ptr null, ptr null, ptr @_ZN4llvm24MCMachObjectTargetWriterD1Ev, ptr @_ZN4llvm24MCMachObjectTargetWriterD0Ev, ptr @_ZNK4llvm24MCMachObjectTargetWriter9getFormatEv, ptr @_ZN4llvm24MCMachObjectTargetWriter5resetEv, ptr @__cxa_pure_virtual] }, align 8

@_ZN4llvm24MCMachObjectTargetWriterD1Ev = unnamed_addr alias void (ptr), ptr @_ZN4llvm24MCMachObjectTargetWriterD2Ev

; Function Attrs: mustprogress nofree norecurse nosync nounwind willreturn memory(argmem: readwrite) uwtable
define dso_local void @_ZN4llvm24MCMachObjectTargetWriterC2Ebjj(ptr nocapture noundef nonnull align 8 dereferenceable(24) %0, i1 noundef zeroext %1, i32 noundef %2, i32 noundef %3) unnamed_addr #0 align 2 {
  store ptr getelementptr inbounds inrange(-16, 40) (i8, ptr @_ZTVN4llvm24MCMachObjectTargetWriterE, i64 16), ptr %0, align 8
  %5 = getelementptr inbounds nuw i8, ptr %0, i64 8
  %6 = zext i1 %1 to i8
  %7 = load i8, ptr %5, align 8
  %8 = and i8 %7, -2
  %9 = or disjoint i8 %8, %6
  store i8 %9, ptr %5, align 8
  %10 = getelementptr inbounds nuw i8, ptr %0, i64 12
  store i32 %2, ptr %10, align 4
  %11 = getelementptr inbounds nuw i8, ptr %0, i64 16
  store i32 %3, ptr %11, align 8
  %12 = getelementptr inbounds nuw i8, ptr %0, i64 20
  store i32 0, ptr %12, align 4
  ret void
}

; Function Attrs: mustprogress nofree norecurse nosync nounwind willreturn memory(none) uwtable
define dso_local void @_ZN4llvm24MCMachObjectTargetWriterD2Ev(ptr nocapture nonnull readnone align 8 %0) unnamed_addr #1 align 2 {
  ret void
}

; Function Attrs: cold mustprogress noreturn nounwind memory(inaccessiblemem: write) uwtable
define dso_local void @_ZN4llvm24MCMachObjectTargetWriterD0Ev(ptr nocapture nonnull readnone align 8 %0) unnamed_addr #2 align 2 {
  tail call void @llvm.trap() #5
  unreachable
}

; Function Attrs: cold noreturn nounwind memory(inaccessiblemem: write)
declare void @llvm.trap() #3

; Function Attrs: mustprogress nounwind uwtable
define linkonce_odr hidden noundef i32 @_ZNK4llvm24MCMachObjectTargetWriter9getFormatEv(ptr noundef nonnull align 8 dereferenceable(24) %0) unnamed_addr #4 comdat align 2 {
  ret i32 5
}

; Function Attrs: mustprogress nounwind uwtable
define linkonce_odr hidden void @_ZN4llvm24MCMachObjectTargetWriter5resetEv(ptr noundef nonnull align 8 dereferenceable(24) %0) unnamed_addr #4 comdat align 2 {
  ret void
}

declare void @__cxa_pure_virtual() unnamed_addr


!llvm.module.flags = !{!0, !1, !2, !3}

!0 = !{i32 1, !"wchar_size", i32 4}
!1 = !{i32 8, !"PIC Level", i32 2}
!2 = !{i32 7, !"uwtable", i32 2}
!3 = !{i32 7, !"frame-pointer", i32 2}
